; Function Attrs: mustprogress nofree norecurse nosync nounwind willreturn memory(argmem: readwrite) uwtable
define void @_ZN3vcg8AreaMode5ResetEv(ptr nocapture noundef nonnull align 8 dereferenceable(216) %0) unnamed_addr #7 align 2 personality ptr @__gxx_personality_v0 {
  %2 = getelementptr inbounds i8, ptr %0, i64 84
  %3 = getelementptr inbounds i8, ptr %0, i64 48
  tail call void @llvm.memcpy.p0.p0.i64(ptr noundef nonnull align 8 dereferenceable(12) %3, ptr noundef nonnull align 4 dereferenceable(12) %2, i64 12, i1 false)
  %4 = getelementptr inbounds i8, ptr %0, i64 72
  tail call void @llvm.memcpy.p0.p0.i64(ptr noundef nonnull align 8 dereferenceable(12) %4, ptr noundef nonnull align 4 dereferenceable(12) %2, i64 12, i1 false)
  %5 = getelementptr inbounds i8, ptr %0, i64 112
  tail call void @llvm.memcpy.p0.p0.i64(ptr noundef nonnull align 8 dereferenceable(12) %5, ptr noundef nonnull align 4 dereferenceable(12) %2, i64 12, i1 false)
  %6 = getelementptr inbounds i8, ptr %0, i64 128
  %7 = load ptr, ptr %6, align 8
  %8 = getelementptr inbounds i8, ptr %0, i64 136
  %9 = load ptr, ptr %8, align 8
  %.not.i.i = icmp eq ptr %9, %7
  br i1 %.not.i.i, label %_ZNSt6vectorIN3vcg6Point3IfEESaIS2_EE5clearEv.exit, label %10

10:                                               ; preds = %1
  store ptr %7, ptr %8, align 8
  br label %_ZNSt6vectorIN3vcg6Point3IfEESaIS2_EE5clearEv.exit

_ZNSt6vectorIN3vcg6Point3IfEESaIS2_EE5clearEv.exit: ; preds = %1, %10
  ret void
}